target datalayout = "e-m:e-p270:32:32-p271:32:32-p272:64:64-i64:64-i128:128-f80:128-n8:16:32:64-S128"
target triple = "x86_64-pc-linux-gnu"

@hf_s7comm_tis_parameter = internal global i32 0, align 4
@hf_s7comm_tis_param1 = internal global i32 0, align 4
@hf_s7comm_tis_param2 = internal global i32 0, align 4
@hf_s7comm_tis_param3 = internal global i32 0, align 4
@hf_s7comm_tis_answersize = internal global i32 0, align 4
@hf_s7comm_tis_param5 = internal global i32 0, align 4
@hf_s7comm_tis_param6 = internal global i32 0, align 4
@hf_s7comm_tis_param7 = internal global i32 0, align 4
@hf_s7comm_tis_param8 = internal global i32 0, align 4
@hf_s7comm_tis_param9 = internal global i32 0, align 4
@hf_s7comm_tis_trgevent = internal global i32 0, align 4
@hf_s7comm_tis_res_param1 = internal global i32 0, align 4
@hf_s7comm_tis_res_param2 = internal global i32 0, align 4
@hf_s7comm_tis_p_callenv = internal global i32 0, align 4
@hf_s7comm_tis_p_callcond = internal global i32 0, align 4
@hf_s7comm_tis_p_callcond_blocktype = internal global i32 0, align 4
@hf_s7comm_tis_p_callcond_blocknr = internal global i32 0, align 4
@hf_s7comm_tis_p_callcond_address = internal global i32 0, align 4
@hf_s7comm_tis_register_db1_nr = internal global i32 0, align 4
@hf_s7comm_tis_register_db2_nr = internal global i32 0, align 4
@hf_s7comm_diagdata_req_block_type = internal global i32 0, align 4
@hf_s7comm_diagdata_req_block_num = internal global i32 0, align 4
@hf_s7comm_diagdata_req_startaddr_awl = internal global i32 0, align 4
@hf_s7comm_diagdata_req_saz = internal global i32 0, align 4
@ett_s7comm_prog_parameter = internal global i32 0, align 4

; Function Attrs: null_pointer_is_valid sspstrong uwtable
define internal i32 @s7comm_decode_ud_tis_param(ptr noundef %0, ptr noundef %1, i8 noundef zeroext %2, i16 noundef zeroext %3, i32 noundef %4) #0 {
  %6 = alloca ptr, align 8
  %7 = alloca ptr, align 8
  %8 = alloca i8, align 1
  %9 = alloca i16, align 2
  %10 = alloca i32, align 4
  %11 = alloca i32, align 4
  %12 = alloca i32, align 4
  %13 = alloca ptr, align 8
  %14 = alloca ptr, align 8
  store ptr %0, ptr %6, align 8
  store ptr %1, ptr %7, align 8
  store i8 %2, ptr %8, align 1
  store i16 %3, ptr %9, align 2
  store i32 %4, ptr %10, align 4
  call void @llvm.lifetime.start.p0(i64 4, ptr %11) #8
  call void @llvm.lifetime.start.p0(i64 4, ptr %12) #8
  store i32 0, ptr %12, align 4
  call void @llvm.lifetime.start.p0(i64 8, ptr %13) #8
  store ptr null, ptr %13, align 8
  call void @llvm.lifetime.start.p0(i64 8, ptr %14) #8
  store ptr null, ptr %14, align 8
  %15 = load i32, ptr %10, align 4
  store i32 %15, ptr %11, align 4
  %16 = load i16, ptr %9, align 2
  %17 = zext i16 %16 to i32
  %18 = icmp sgt i32 %17, 0
  br i1 %18, label %19, label %226

19:                                               ; preds = %5
  %20 = load ptr, ptr %7, align 8
  %21 = load i32, ptr @hf_s7comm_tis_parameter, align 4
  %22 = load ptr, ptr %6, align 8
  %23 = load i32, ptr %10, align 4
  %24 = load i16, ptr %9, align 2
  %25 = zext i16 %24 to i32
  %26 = call ptr @proto_tree_add_item(ptr noundef %20, i32 noundef %21, ptr noundef %22, i32 noundef %23, i32 noundef %25, i32 noundef 0)
  store ptr %26, ptr %13, align 8
  %27 = load ptr, ptr %13, align 8
  %28 = load i32, ptr @ett_s7comm_prog_parameter, align 4
  %29 = call ptr @proto_item_add_subtree(ptr noundef %27, i32 noundef %28)
  store ptr %29, ptr %14, align 8
  %30 = load i8, ptr %8, align 1
  %31 = zext i8 %30 to i32
  %32 = icmp eq i32 %31, 1
  br i1 %32, label %33, label %212

33:                                               ; preds = %19
  %34 = load i16, ptr %9, align 2
  %35 = zext i16 %34 to i32
  %36 = icmp sge i32 %35, 4
  br i1 %36, label %37, label %52

37:                                               ; preds = %33
  %38 = load ptr, ptr %14, align 8
  %39 = load i32, ptr @hf_s7comm_tis_param1, align 4
  %40 = load ptr, ptr %6, align 8
  %41 = load i32, ptr %10, align 4
  %42 = call ptr @proto_tree_add_item(ptr noundef %38, i32 noundef %39, ptr noundef %40, i32 noundef %41, i32 noundef 2, i32 noundef 0)
  %43 = load i32, ptr %10, align 4
  %44 = add i32 %43, 2
  store i32 %44, ptr %10, align 4
  %45 = load ptr, ptr %14, align 8
  %46 = load i32, ptr @hf_s7comm_tis_param2, align 4
  %47 = load ptr, ptr %6, align 8
  %48 = load i32, ptr %10, align 4
  %49 = call ptr @proto_tree_add_item(ptr noundef %45, i32 noundef %46, ptr noundef %47, i32 noundef %48, i32 noundef 2, i32 noundef 0)
  %50 = load i32, ptr %10, align 4
  %51 = add i32 %50, 2
  store i32 %51, ptr %10, align 4
  br label %52

52:                                               ; preds = %37, %33
  %53 = load i16, ptr %9, align 2
  %54 = zext i16 %53 to i32
  %55 = icmp sge i32 %54, 20
  br i1 %55, label %56, label %113

56:                                               ; preds = %52
  %57 = load ptr, ptr %14, align 8
  %58 = load i32, ptr @hf_s7comm_tis_param3, align 4
  %59 = load ptr, ptr %6, align 8
  %60 = load i32, ptr %10, align 4
  %61 = call ptr @proto_tree_add_item(ptr noundef %57, i32 noundef %58, ptr noundef %59, i32 noundef %60, i32 noundef 2, i32 noundef 0)
  %62 = load i32, ptr %10, align 4
  %63 = add i32 %62, 2
  store i32 %63, ptr %10, align 4
  %64 = load ptr, ptr %14, align 8
  %65 = load i32, ptr @hf_s7comm_tis_answersize, align 4
  %66 = load ptr, ptr %6, align 8
  %67 = load i32, ptr %10, align 4
  %68 = call ptr @proto_tree_add_item(ptr noundef %64, i32 noundef %65, ptr noundef %66, i32 noundef %67, i32 noundef 2, i32 noundef 0)
  %69 = load i32, ptr %10, align 4
  %70 = add i32 %69, 2
  store i32 %70, ptr %10, align 4
  %71 = load ptr, ptr %14, align 8
  %72 = load i32, ptr @hf_s7comm_tis_param5, align 4
  %73 = load ptr, ptr %6, align 8
  %74 = load i32, ptr %10, align 4
  %75 = call ptr @proto_tree_add_item(ptr noundef %71, i32 noundef %72, ptr noundef %73, i32 noundef %74, i32 noundef 2, i32 noundef 0)
  %76 = load i32, ptr %10, align 4
  %77 = add i32 %76, 2
  store i32 %77, ptr %10, align 4
  %78 = load ptr, ptr %14, align 8
  %79 = load i32, ptr @hf_s7comm_tis_param6, align 4
  %80 = load ptr, ptr %6, align 8
  %81 = load i32, ptr %10, align 4
  %82 = call ptr @proto_tree_add_item(ptr noundef %78, i32 noundef %79, ptr noundef %80, i32 noundef %81, i32 noundef 2, i32 noundef 0)
  %83 = load i32, ptr %10, align 4
  %84 = add i32 %83, 2
  store i32 %84, ptr %10, align 4
  %85 = load ptr, ptr %14, align 8
  %86 = load i32, ptr @hf_s7comm_tis_param7, align 4
  %87 = load ptr, ptr %6, align 8
  %88 = load i32, ptr %10, align 4
  %89 = call ptr @proto_tree_add_item(ptr noundef %85, i32 noundef %86, ptr noundef %87, i32 noundef %88, i32 noundef 2, i32 noundef 0)
  %90 = load i32, ptr %10, align 4
  %91 = add i32 %90, 2
  store i32 %91, ptr %10, align 4
  %92 = load ptr, ptr %14, align 8
  %93 = load i32, ptr @hf_s7comm_tis_param8, align 4
  %94 = load ptr, ptr %6, align 8
  %95 = load i32, ptr %10, align 4
  %96 = call ptr @proto_tree_add_item(ptr noundef %92, i32 noundef %93, ptr noundef %94, i32 noundef %95, i32 noundef 2, i32 noundef 0)
  %97 = load i32, ptr %10, align 4
  %98 = add i32 %97, 2
  store i32 %98, ptr %10, align 4
  %99 = load ptr, ptr %14, align 8
  %100 = load i32, ptr @hf_s7comm_tis_param9, align 4
  %101 = load ptr, ptr %6, align 8
  %102 = load i32, ptr %10, align 4
  %103 = call ptr @proto_tree_add_item(ptr noundef %99, i32 noundef %100, ptr noundef %101, i32 noundef %102, i32 noundef 2, i32 noundef 0)
  %104 = load i32, ptr %10, align 4
  %105 = add i32 %104, 2
  store i32 %105, ptr %10, align 4
  %106 = load ptr, ptr %14, align 8
  %107 = load i32, ptr @hf_s7comm_tis_trgevent, align 4
  %108 = load ptr, ptr %6, align 8
  %109 = load i32, ptr %10, align 4
  %110 = call ptr @proto_tree_add_item(ptr noundef %106, i32 noundef %107, ptr noundef %108, i32 noundef %109, i32 noundef 2, i32 noundef 0)
  %111 = load i32, ptr %10, align 4
  %112 = add i32 %111, 2
  store i32 %112, ptr %10, align 4
  br label %113

113:                                              ; preds = %56, %52
  %114 = load i16, ptr %9, align 2
  %115 = zext i16 %114 to i32
  %116 = icmp sge i32 %115, 26
  br i1 %116, label %117, label %139

117:                                              ; preds = %113
  %118 = load ptr, ptr %14, align 8
  %119 = load i32, ptr @hf_s7comm_diagdata_req_block_type, align 4
  %120 = load ptr, ptr %6, align 8
  %121 = load i32, ptr %10, align 4
  %122 = call ptr @proto_tree_add_item(ptr noundef %118, i32 noundef %119, ptr noundef %120, i32 noundef %121, i32 noundef 2, i32 noundef 0)
  %123 = load i32, ptr %10, align 4
  %124 = add i32 %123, 2
  store i32 %124, ptr %10, align 4
  %125 = load ptr, ptr %14, align 8
  %126 = load i32, ptr @hf_s7comm_diagdata_req_block_num, align 4
  %127 = load ptr, ptr %6, align 8
  %128 = load i32, ptr %10, align 4
  %129 = call ptr @proto_tree_add_item(ptr noundef %125, i32 noundef %126, ptr noundef %127, i32 noundef %128, i32 noundef 2, i32 noundef 0)
  %130 = load i32, ptr %10, align 4
  %131 = add i32 %130, 2
  store i32 %131, ptr %10, align 4
  %132 = load ptr, ptr %14, align 8
  %133 = load i32, ptr @hf_s7comm_diagdata_req_startaddr_awl, align 4
  %134 = load ptr, ptr %6, align 8
  %135 = load i32, ptr %10, align 4
  %136 = call ptr @proto_tree_add_item(ptr noundef %132, i32 noundef %133, ptr noundef %134, i32 noundef %135, i32 noundef 2, i32 noundef 0)
  %137 = load i32, ptr %10, align 4
  %138 = add i32 %137, 2
  store i32 %138, ptr %10, align 4
  br label %139

139:                                              ; preds = %117, %113
  %140 = load i16, ptr %9, align 2
  %141 = zext i16 %140 to i32
  %142 = icmp sge i32 %141, 28
  br i1 %142, label %143, label %151

143:                                              ; preds = %139
  %144 = load ptr, ptr %14, align 8
  %145 = load i32, ptr @hf_s7comm_diagdata_req_saz, align 4
  %146 = load ptr, ptr %6, align 8
  %147 = load i32, ptr %10, align 4
  %148 = call ptr @proto_tree_add_item(ptr noundef %144, i32 noundef %145, ptr noundef %146, i32 noundef %147, i32 noundef 2, i32 noundef 0)
  %149 = load i32, ptr %10, align 4
  %150 = add i32 %149, 2
  store i32 %150, ptr %10, align 4
  br label %151

151:                                              ; preds = %143, %139
  %152 = load i16, ptr %9, align 2
  %153 = zext i16 %152 to i32
  %154 = icmp sge i32 %153, 36
  br i1 %154, label %155, label %211

155:                                              ; preds = %151
  %156 = load ptr, ptr %14, align 8
  %157 = load i32, ptr @hf_s7comm_tis_p_callenv, align 4
  %158 = load ptr, ptr %6, align 8
  %159 = load i32, ptr %10, align 4
  %160 = call ptr @proto_tree_add_item_ret_uint(ptr noundef %156, i32 noundef %157, ptr noundef %158, i32 noundef %159, i32 noundef 2, i32 noundef 0, ptr noundef %12)
  %161 = load i32, ptr %10, align 4
  %162 = add i32 %161, 2
  store i32 %162, ptr %10, align 4
  %163 = load ptr, ptr %14, align 8
  %164 = load i32, ptr @hf_s7comm_tis_p_callcond, align 4
  %165 = load ptr, ptr %6, align 8
  %166 = load i32, ptr %10, align 4
  %167 = call ptr @proto_tree_add_item(ptr noundef %163, i32 noundef %164, ptr noundef %165, i32 noundef %166, i32 noundef 2, i32 noundef 0)
  %168 = load i32, ptr %10, align 4
  %169 = add i32 %168, 2
  store i32 %169, ptr %10, align 4
  %170 = load i32, ptr %12, align 4
  %171 = icmp eq i32 %170, 2
  br i1 %171, label %172, label %185

172:                                              ; preds = %155
  %173 = load ptr, ptr %14, align 8
  %174 = load i32, ptr @hf_s7comm_tis_register_db1_nr, align 4
  %175 = load ptr, ptr %6, align 8
  %176 = load i32, ptr %10, align 4
  %177 = call ptr @proto_tree_add_item(ptr noundef %173, i32 noundef %174, ptr noundef %175, i32 noundef %176, i32 noundef 2, i32 noundef 0)
  %178 = load i32, ptr %10, align 4
  %179 = add i32 %178, 2
  store i32 %179, ptr %10, align 4
  %180 = load ptr, ptr %14, align 8
  %181 = load i32, ptr @hf_s7comm_tis_register_db2_nr, align 4
  %182 = load ptr, ptr %6, align 8
  %183 = load i32, ptr %10, align 4
  %184 = call ptr @proto_tree_add_item(ptr noundef %180, i32 noundef %181, ptr noundef %182, i32 noundef %183, i32 noundef 2, i32 noundef 0)
  br label %210

185:                                              ; preds = %155
  %186 = load ptr, ptr %14, align 8
  %187 = load i32, ptr @hf_s7comm_tis_p_callcond_blocktype, align 4
  %188 = load ptr, ptr %6, align 8
  %189 = load i32, ptr %10, align 4
  %190 = call ptr @proto_tree_add_item(ptr noundef %186, i32 noundef %187, ptr noundef %188, i32 noundef %189, i32 noundef 2, i32 noundef 0)
  %191 = load i32, ptr %10, align 4
  %192 = add i32 %191, 2
  store i32 %192, ptr %10, align 4
  %193 = load ptr, ptr %14, align 8
  %194 = load i32, ptr @hf_s7comm_tis_p_callcond_blocknr, align 4
  %195 = load ptr, ptr %6, align 8
  %196 = load i32, ptr %10, align 4
  %197 = call ptr @proto_tree_add_item(ptr noundef %193, i32 noundef %194, ptr noundef %195, i32 noundef %196, i32 noundef 2, i32 noundef 0)
  %198 = load i32, ptr %10, align 4
  %199 = add i32 %198, 2
  store i32 %199, ptr %10, align 4
  %200 = load i16, ptr %9, align 2
  %201 = zext i16 %200 to i32
  %202 = icmp sge i32 %201, 38
  br i1 %202, label %203, label %209

203:                                              ; preds = %185
  %204 = load ptr, ptr %14, align 8
  %205 = load i32, ptr @hf_s7comm_tis_p_callcond_address, align 4
  %206 = load ptr, ptr %6, align 8
  %207 = load i32, ptr %10, align 4
  %208 = call ptr @proto_tree_add_item(ptr noundef %204, i32 noundef %205, ptr noundef %206, i32 noundef %207, i32 noundef 2, i32 noundef 0)
  br label %209

209:                                              ; preds = %203, %185
  br label %210

210:                                              ; preds = %209, %172
  br label %211

211:                                              ; preds = %210, %151
  br label %225

212:                                              ; preds = %19
  %213 = load ptr, ptr %14, align 8
  %214 = load i32, ptr @hf_s7comm_tis_res_param1, align 4
  %215 = load ptr, ptr %6, align 8
  %216 = load i32, ptr %10, align 4
  %217 = call ptr @proto_tree_add_item(ptr noundef %213, i32 noundef %214, ptr noundef %215, i32 noundef %216, i32 noundef 2, i32 noundef 0)
  %218 = load i32, ptr %10, align 4
  %219 = add i32 %218, 2
  store i32 %219, ptr %10, align 4
  %220 = load ptr, ptr %14, align 8
  %221 = load i32, ptr @hf_s7comm_tis_res_param2, align 4
  %222 = load ptr, ptr %6, align 8
  %223 = load i32, ptr %10, align 4
  %224 = call ptr @proto_tree_add_item(ptr noundef %220, i32 noundef %221, ptr noundef %222, i32 noundef %223, i32 noundef 2, i32 noundef 0)
  br label %225

225:                                              ; preds = %212, %211
  br label %226

226:                                              ; preds = %225, %5
  %227 = load i32, ptr %11, align 4
  %228 = load i16, ptr %9, align 2
  %229 = zext i16 %228 to i32
  %230 = add i32 %227, %229
  call void @llvm.lifetime.end.p0(i64 8, ptr %14) #8
  call void @llvm.lifetime.end.p0(i64 8, ptr %13) #8
  call void @llvm.lifetime.end.p0(i64 4, ptr %12) #8
  call void @llvm.lifetime.end.p0(i64 4, ptr %11) #8
  ret i32 %230
}