; Function Attrs: null_pointer_is_valid sspstrong uwtable
define internal fastcc noundef i32 @s7comm_decode_ud_tis_param(ptr noundef %0, ptr noundef %1, i8 noundef zeroext range(i8 0, 4) %2, i16 noundef zeroext %3, i32 noundef %4) unnamed_addr #0 {
  %6 = alloca i32, align 4
  call void @llvm.lifetime.start.p0(i64 4, ptr nonnull %6) #8
  store i32 0, ptr %6, align 4
  %7 = zext i16 %3 to i32
  %.not = icmp eq i16 %3, 0
  br i1 %.not, label %.thread112, label %8

8:                                                ; preds = %5
  %9 = load i32, ptr @hf_s7comm_tis_parameter, align 4
  %10 = tail call ptr @proto_tree_add_item(ptr noundef %1, i32 noundef %9, ptr noundef %0, i32 noundef %4, i32 noundef %7, i32 noundef 0)
  %11 = load i32, ptr @ett_s7comm_prog_parameter, align 4
  %12 = tail call ptr @proto_item_add_subtree(ptr noundef %10, i32 noundef %11)
  %13 = icmp eq i8 %2, 1
  br i1 %13, label %14, label %91

14:                                               ; preds = %8
  %15 = icmp ugt i16 %3, 3
  br i1 %15, label %16, label %.thread112

16:                                               ; preds = %14
  %17 = load i32, ptr @hf_s7comm_tis_param1, align 4
  %18 = tail call ptr @proto_tree_add_item(ptr noundef %12, i32 noundef %17, ptr noundef %0, i32 noundef %4, i32 noundef 2, i32 noundef 0)
  %19 = add i32 %4, 2
  %20 = load i32, ptr @hf_s7comm_tis_param2, align 4
  %21 = tail call ptr @proto_tree_add_item(ptr noundef %12, i32 noundef %20, ptr noundef %0, i32 noundef %19, i32 noundef 2, i32 noundef 0)
  %22 = icmp ugt i16 %3, 19
  br i1 %22, label %23, label %.thread112

23:                                               ; preds = %16
  %24 = add i32 %4, 4
  %25 = load i32, ptr @hf_s7comm_tis_param3, align 4
  %26 = tail call ptr @proto_tree_add_item(ptr noundef %12, i32 noundef %25, ptr noundef %0, i32 noundef %24, i32 noundef 2, i32 noundef 0)
  %27 = add i32 %4, 6
  %28 = load i32, ptr @hf_s7comm_tis_answersize, align 4
  %29 = tail call ptr @proto_tree_add_item(ptr noundef %12, i32 noundef %28, ptr noundef %0, i32 noundef %27, i32 noundef 2, i32 noundef 0)
  %30 = add i32 %4, 8
  %31 = load i32, ptr @hf_s7comm_tis_param5, align 4
  %32 = tail call ptr @proto_tree_add_item(ptr noundef %12, i32 noundef %31, ptr noundef %0, i32 noundef %30, i32 noundef 2, i32 noundef 0)
  %33 = add i32 %4, 10
  %34 = load i32, ptr @hf_s7comm_tis_param6, align 4
  %35 = tail call ptr @proto_tree_add_item(ptr noundef %12, i32 noundef %34, ptr noundef %0, i32 noundef %33, i32 noundef 2, i32 noundef 0)
  %36 = add i32 %4, 12
  %37 = load i32, ptr @hf_s7comm_tis_param7, align 4
  %38 = tail call ptr @proto_tree_add_item(ptr noundef %12, i32 noundef %37, ptr noundef %0, i32 noundef %36, i32 noundef 2, i32 noundef 0)
  %39 = add i32 %4, 14
  %40 = load i32, ptr @hf_s7comm_tis_param8, align 4
  %41 = tail call ptr @proto_tree_add_item(ptr noundef %12, i32 noundef %40, ptr noundef %0, i32 noundef %39, i32 noundef 2, i32 noundef 0)
  %42 = add i32 %4, 16
  %43 = load i32, ptr @hf_s7comm_tis_param9, align 4
  %44 = tail call ptr @proto_tree_add_item(ptr noundef %12, i32 noundef %43, ptr noundef %0, i32 noundef %42, i32 noundef 2, i32 noundef 0)
  %45 = add i32 %4, 18
  %46 = load i32, ptr @hf_s7comm_tis_trgevent, align 4
  %47 = tail call ptr @proto_tree_add_item(ptr noundef %12, i32 noundef %46, ptr noundef %0, i32 noundef %45, i32 noundef 2, i32 noundef 0)
  %48 = icmp ugt i16 %3, 25
  br i1 %48, label %49, label %.thread112

49:                                               ; preds = %23
  %50 = add i32 %4, 20
  %51 = load i32, ptr @hf_s7comm_diagdata_req_block_type, align 4
  %52 = tail call ptr @proto_tree_add_item(ptr noundef %12, i32 noundef %51, ptr noundef %0, i32 noundef %50, i32 noundef 2, i32 noundef 0)
  %53 = add i32 %4, 22
  %54 = load i32, ptr @hf_s7comm_diagdata_req_block_num, align 4
  %55 = tail call ptr @proto_tree_add_item(ptr noundef %12, i32 noundef %54, ptr noundef %0, i32 noundef %53, i32 noundef 2, i32 noundef 0)
  %56 = add i32 %4, 24
  %57 = load i32, ptr @hf_s7comm_diagdata_req_startaddr_awl, align 4
  %58 = tail call ptr @proto_tree_add_item(ptr noundef %12, i32 noundef %57, ptr noundef %0, i32 noundef %56, i32 noundef 2, i32 noundef 0)
  %59 = icmp ugt i16 %3, 27
  br i1 %59, label %60, label %.thread112

60:                                               ; preds = %49
  %61 = add i32 %4, 26
  %62 = load i32, ptr @hf_s7comm_diagdata_req_saz, align 4
  %63 = tail call ptr @proto_tree_add_item(ptr noundef %12, i32 noundef %62, ptr noundef %0, i32 noundef %61, i32 noundef 2, i32 noundef 0)
  %64 = icmp ugt i16 %3, 35
  br i1 %64, label %65, label %.thread112

65:                                               ; preds = %60
  %66 = add i32 %4, 28
  %67 = load i32, ptr @hf_s7comm_tis_p_callenv, align 4
  %68 = call ptr @proto_tree_add_item_ret_uint(ptr noundef %12, i32 noundef %67, ptr noundef %0, i32 noundef %66, i32 noundef 2, i32 noundef 0, ptr noundef nonnull %6)
  %69 = add i32 %4, 30
  %70 = load i32, ptr @hf_s7comm_tis_p_callcond, align 4
  %71 = call ptr @proto_tree_add_item(ptr noundef %12, i32 noundef %70, ptr noundef %0, i32 noundef %69, i32 noundef 2, i32 noundef 0)
  %72 = add i32 %4, 32
  %73 = load i32, ptr %6, align 4
  %74 = icmp eq i32 %73, 2
  %75 = add i32 %4, 34
  br i1 %74, label %76, label %81

76:                                               ; preds = %65
  %77 = load i32, ptr @hf_s7comm_tis_register_db1_nr, align 4
  %78 = call ptr @proto_tree_add_item(ptr noundef %12, i32 noundef %77, ptr noundef %0, i32 noundef %72, i32 noundef 2, i32 noundef 0)
  %79 = load i32, ptr @hf_s7comm_tis_register_db2_nr, align 4
  %80 = call ptr @proto_tree_add_item(ptr noundef %12, i32 noundef %79, ptr noundef %0, i32 noundef %75, i32 noundef 2, i32 noundef 0)
  br label %.thread112

81:                                               ; preds = %65
  %82 = load i32, ptr @hf_s7comm_tis_p_callcond_blocktype, align 4
  %83 = call ptr @proto_tree_add_item(ptr noundef %12, i32 noundef %82, ptr noundef %0, i32 noundef %72, i32 noundef 2, i32 noundef 0)
  %84 = load i32, ptr @hf_s7comm_tis_p_callcond_blocknr, align 4
  %85 = call ptr @proto_tree_add_item(ptr noundef %12, i32 noundef %84, ptr noundef %0, i32 noundef %75, i32 noundef 2, i32 noundef 0)
  %86 = icmp ugt i16 %3, 37
  br i1 %86, label %87, label %.thread112

87:                                               ; preds = %81
  %88 = add i32 %4, 36
  %89 = load i32, ptr @hf_s7comm_tis_p_callcond_address, align 4
  %90 = call ptr @proto_tree_add_item(ptr noundef %12, i32 noundef %89, ptr noundef %0, i32 noundef %88, i32 noundef 2, i32 noundef 0)
  br label %.thread112

91:                                               ; preds = %8
  %92 = load i32, ptr @hf_s7comm_tis_res_param1, align 4
  %93 = tail call ptr @proto_tree_add_item(ptr noundef %12, i32 noundef %92, ptr noundef %0, i32 noundef %4, i32 noundef 2, i32 noundef 0)
  %94 = add i32 %4, 2
  %95 = load i32, ptr @hf_s7comm_tis_res_param2, align 4
  %96 = tail call ptr @proto_tree_add_item(ptr noundef %12, i32 noundef %95, ptr noundef %0, i32 noundef %94, i32 noundef 2, i32 noundef 0)
  br label %.thread112

.thread112:                                       ; preds = %14, %16, %23, %49, %91, %76, %87, %81, %60, %5
  %97 = add i32 %4, %7
  call void @llvm.lifetime.end.p0(i64 4, ptr nonnull %6) #8
  ret i32 %97
}